; Function Attrs: mustprogress nounwind uwtable
define void @_ZN6google8protobuf13MethodOptionsD2Ev(ptr noundef nonnull align 8 dereferenceable(88) %this) unnamed_addr #6 align 2 personality ptr @__gxx_personality_v0 {
entry:
  %_internal_metadata_ = getelementptr inbounds i8, ptr %this, i64 8
  %0 = load i64, ptr %_internal_metadata_, align 8
  %and.i.i = and i64 %0, 1
  %tobool.i.not.i = icmp eq i64 %and.i.i, 0
  br i1 %tobool.i.not.i, label %invoke.cont, label %if.then.i

if.then.i:                                        ; preds = %entry
  invoke void @_ZN6google8protobuf8internal16InternalMetadata21DeleteOutOfLineHelperINS0_15UnknownFieldSetEEEvv(ptr noundef nonnull align 8 dereferenceable(8) %_internal_metadata_)
          to label %invoke.cont unwind label %terminate.lpad

invoke.cont:                                      ; preds = %entry, %if.then.i
  %features_.i = getelementptr inbounds i8, ptr %this, i64 72
  %1 = load ptr, ptr %features_.i, align 8
  %isnull.i = icmp eq ptr %1, null
  br i1 %isnull.i, label %delete.end.i, label %delete.notnull.i

delete.notnull.i:                                 ; preds = %invoke.cont
  tail call void @_ZN6google8protobuf10FeatureSetD1Ev(ptr noundef nonnull align 8 dereferenceable(72) %1) #22
  tail call void @_ZdlPv(ptr noundef nonnull %1) #23
  br label %delete.end.i

delete.end.i:                                     ; preds = %delete.notnull.i, %invoke.cont
  %uninterpreted_option_.i.i = getelementptr inbounds i8, ptr %this, i64 48
  %2 = load ptr, ptr %uninterpreted_option_.i.i, align 8
  %cmp.i.not.i.i.i = icmp eq ptr %2, null
  br i1 %cmp.i.not.i.i.i, label %_ZN6google8protobuf13MethodOptions10SharedDtorEv.exit, label %if.end.i.i.i

if.end.i.i.i:                                     ; preds = %delete.end.i
  invoke void @_ZN6google8protobuf8internal20RepeatedPtrFieldBase13DestroyProtosEv(ptr noundef nonnull align 8 dereferenceable(24) %uninterpreted_option_.i.i)
          to label %_ZN6google8protobuf13MethodOptions10SharedDtorEv.exit unwind label %terminate.lpad.i.i.i

terminate.lpad.i.i.i:                             ; preds = %if.end.i.i.i
  %3 = landingpad { ptr, i32 }
          catch ptr null
  %4 = extractvalue { ptr, i32 } %3, 0
  tail call void @__clang_call_terminate(ptr %4) #21
  unreachable

_ZN6google8protobuf13MethodOptions10SharedDtorEv.exit: ; preds = %delete.end.i, %if.end.i.i.i
  %5 = getelementptr inbounds i8, ptr %this, i64 16
  tail call void @_ZN6google8protobuf8internal12ExtensionSetD1Ev(ptr noundef nonnull align 8 dereferenceable(24) %5) #22
  ret void

terminate.lpad:                                   ; preds = %if.then.i
  %6 = landingpad { ptr, i32 }
          catch ptr null
  %7 = extractvalue { ptr, i32 } %6, 0
  tail call void @__clang_call_terminate(ptr %7) #21
  unreachable
}